; Function Attrs: uwtable
define void @_ZThn8_N8proxygen26PassThroughHTTPCodecFilter17onHeadersCompleteEmSt10unique_ptrINS_11HTTPMessageESt14default_deleteIS2_EE(ptr nocapture noundef readonly %this, i64 noundef %stream, ptr nocapture noundef %msg) unnamed_addr #4 align 2 personality ptr @__gxx_personality_v0 {
entry:
  %agg.tmp.i = alloca %"class.std::unique_ptr", align 8
  call void @llvm.lifetime.start.p0(i64 8, ptr nonnull %agg.tmp.i)
  %callback_.i = getelementptr inbounds i8, ptr %this, i64 24
  %0 = load ptr, ptr %callback_.i, align 8
  %1 = load i64, ptr %msg, align 8
  store i64 %1, ptr %agg.tmp.i, align 8
  store ptr null, ptr %msg, align 8
  %vtable.i = load ptr, ptr %0, align 8
  %vfn.i = getelementptr inbounds i8, ptr %vtable.i, i64 24
  %2 = load ptr, ptr %vfn.i, align 8
  invoke void %2(ptr noundef nonnull align 8 dereferenceable(8) %0, i64 noundef %stream, ptr noundef nonnull %agg.tmp.i)
          to label %invoke.cont.i unwind label %lpad.i

invoke.cont.i:                                    ; preds = %entry
  %3 = load ptr, ptr %agg.tmp.i, align 8
  %cmp.not.i.i = icmp eq ptr %3, null
  br i1 %cmp.not.i.i, label %_ZN8proxygen26PassThroughHTTPCodecFilter17onHeadersCompleteEmSt10unique_ptrINS_11HTTPMessageESt14default_deleteIS2_EE.exit, label %_ZNKSt14default_deleteIN8proxygen11HTTPMessageEEclEPS1_.exit.i.i

_ZNKSt14default_deleteIN8proxygen11HTTPMessageEEclEPS1_.exit.i.i: ; preds = %invoke.cont.i
  call void @_ZN8proxygen11HTTPMessageD1Ev(ptr noundef nonnull align 8 dereferenceable(616) %3) #15
  call void @_ZdlPv(ptr noundef nonnull %3) #16
  br label %_ZN8proxygen26PassThroughHTTPCodecFilter17onHeadersCompleteEmSt10unique_ptrINS_11HTTPMessageESt14default_deleteIS2_EE.exit

lpad.i:                                           ; preds = %entry
  %4 = landingpad { ptr, i32 }
          cleanup
  call void @_ZNSt10unique_ptrIN8proxygen11HTTPMessageESt14default_deleteIS1_EED2Ev(ptr noundef nonnull align 8 dereferenceable(8) %agg.tmp.i) #15
  resume { ptr, i32 } %4

_ZN8proxygen26PassThroughHTTPCodecFilter17onHeadersCompleteEmSt10unique_ptrINS_11HTTPMessageESt14default_deleteIS2_EE.exit: ; preds = %invoke.cont.i, %_ZNKSt14default_deleteIN8proxygen11HTTPMessageEEclEPS1_.exit.i.i
  call void @llvm.lifetime.end.p0(i64 8, ptr nonnull %agg.tmp.i)
  ret void
}